target datalayout = "e-m:e-p270:32:32-p271:32:32-p272:64:64-i64:64-i128:128-f80:128-n8:16:32:64-S128"
target triple = "x86_64-pc-linux-gnu"

%"class.pxrInternal_v0_24__pxrReserved__::GfDualQuath" = type { %"class.pxrInternal_v0_24__pxrReserved__::GfQuath", %"class.pxrInternal_v0_24__pxrReserved__::GfQuath" }
%"class.pxrInternal_v0_24__pxrReserved__::GfQuath" = type { %"class.pxrInternal_v0_24__pxrReserved__::GfVec3h", %"class.pxrInternal_v0_24__pxrReserved__::pxr_half::half" }
%"class.pxrInternal_v0_24__pxrReserved__::GfVec3h" = type { [3 x %"class.pxrInternal_v0_24__pxrReserved__::pxr_half::half"] }
%"class.pxrInternal_v0_24__pxrReserved__::pxr_half::half" = type { i16 }

; Function Attrs: mustprogress nounwind uwtable
define linkonce_odr void @_ZN32pxrInternal_v0_24__pxrReserved__7GfVec3hC2ENS_8pxr_half4halfES2_S2_(ptr noundef nonnull align 2 dereferenceable(6) %0, i16 %1, i16 %2, i16 %3) unnamed_addr #2 comdat align 2 {
  %5 = alloca %"class.pxrInternal_v0_24__pxrReserved__::pxr_half::half", align 2
  %6 = alloca %"class.pxrInternal_v0_24__pxrReserved__::pxr_half::half", align 2
  %7 = alloca %"class.pxrInternal_v0_24__pxrReserved__::pxr_half::half", align 2
  %8 = alloca ptr, align 8
  %9 = getelementptr inbounds nuw %"class.pxrInternal_v0_24__pxrReserved__::pxr_half::half", ptr %5, i32 0, i32 0
  store i16 %1, ptr %9, align 2
  %10 = getelementptr inbounds nuw %"class.pxrInternal_v0_24__pxrReserved__::pxr_half::half", ptr %6, i32 0, i32 0
  store i16 %2, ptr %10, align 2
  %11 = getelementptr inbounds nuw %"class.pxrInternal_v0_24__pxrReserved__::pxr_half::half", ptr %7, i32 0, i32 0
  store i16 %3, ptr %11, align 2
  store ptr %0, ptr %8, align 8
  %12 = load ptr, ptr %8, align 8
  %13 = getelementptr inbounds nuw %"class.pxrInternal_v0_24__pxrReserved__::GfVec3h", ptr %12, i32 0, i32 0
  call void @llvm.memcpy.p0.p0.i64(ptr align 2 %13, ptr align 2 %5, i64 2, i1 false)
  %14 = getelementptr inbounds %"class.pxrInternal_v0_24__pxrReserved__::pxr_half::half", ptr %13, i64 1
  call void @llvm.memcpy.p0.p0.i64(ptr align 2 %14, ptr align 2 %6, i64 2, i1 false)
  %15 = getelementptr inbounds %"class.pxrInternal_v0_24__pxrReserved__::pxr_half::half", ptr %13, i64 2
  call void @llvm.memcpy.p0.p0.i64(ptr align 2 %15, ptr align 2 %7, i64 2, i1 false)
  ret void
}

; Function Attrs: mustprogress nounwind uwtable
define linkonce_odr i16 @_ZNK32pxrInternal_v0_24__pxrReserved__8pxr_half4halfngEv(ptr noundef nonnull align 2 dereferenceable(2) %0) #2 comdat align 2 {
  %2 = alloca %"class.pxrInternal_v0_24__pxrReserved__::pxr_half::half", align 2
  %3 = alloca ptr, align 8
  store ptr %0, ptr %3, align 8
  %4 = load ptr, ptr %3, align 8
  %5 = getelementptr inbounds nuw %"class.pxrInternal_v0_24__pxrReserved__::pxr_half::half", ptr %4, i32 0, i32 0
  %6 = load i16, ptr %5, align 2
  %7 = zext i16 %6 to i32
  %8 = xor i32 %7, 32768
  %9 = trunc i32 %8 to i16
  %10 = getelementptr inbounds nuw %"class.pxrInternal_v0_24__pxrReserved__::pxr_half::half", ptr %2, i32 0, i32 0
  store i16 %9, ptr %10, align 2
  %11 = getelementptr inbounds nuw %"class.pxrInternal_v0_24__pxrReserved__::pxr_half::half", ptr %2, i32 0, i32 0
  %12 = load i16, ptr %11, align 2
  ret i16 %12
}

; Function Attrs: mustprogress nounwind uwtable
define linkonce_odr void @_ZN32pxrInternal_v0_24__pxrReserved__7GfQuathC2ENS_8pxr_half4halfERKNS_7GfVec3hE(ptr noundef nonnull align 2 dereferenceable(8) %0, i16 %1, ptr noundef nonnull align 2 dereferenceable(6) %2) unnamed_addr #2 comdat align 2 {
  %4 = alloca %"class.pxrInternal_v0_24__pxrReserved__::pxr_half::half", align 2
  %5 = alloca ptr, align 8
  %6 = alloca ptr, align 8
  %7 = getelementptr inbounds nuw %"class.pxrInternal_v0_24__pxrReserved__::pxr_half::half", ptr %4, i32 0, i32 0
  store i16 %1, ptr %7, align 2
  store ptr %0, ptr %5, align 8
  store ptr %2, ptr %6, align 8
  %8 = load ptr, ptr %5, align 8
  %9 = getelementptr inbounds nuw %"class.pxrInternal_v0_24__pxrReserved__::GfQuath", ptr %8, i32 0, i32 0
  %10 = load ptr, ptr %6, align 8
  call void @llvm.memcpy.p0.p0.i64(ptr align 2 %9, ptr align 2 %10, i64 6, i1 false)
  %11 = getelementptr inbounds nuw %"class.pxrInternal_v0_24__pxrReserved__::GfQuath", ptr %8, i32 0, i32 1
  call void @llvm.memcpy.p0.p0.i64(ptr align 2 %11, ptr align 2 %4, i64 2, i1 false)
  ret void
}

; Function Attrs: mustprogress uwtable
define linkonce_odr i48 @_ZNK32pxrInternal_v0_24__pxrReserved__7GfVec3hngEv(ptr noundef nonnull align 2 dereferenceable(6) %0) #0 comdat align 2 {
  %2 = alloca %"class.pxrInternal_v0_24__pxrReserved__::GfVec3h", align 2
  %3 = alloca ptr, align 8
  %4 = alloca %"class.pxrInternal_v0_24__pxrReserved__::pxr_half::half", align 2
  %5 = alloca %"class.pxrInternal_v0_24__pxrReserved__::pxr_half::half", align 2
  %6 = alloca %"class.pxrInternal_v0_24__pxrReserved__::pxr_half::half", align 2
  %7 = alloca i48, align 8
  store ptr %0, ptr %3, align 8
  %8 = load ptr, ptr %3, align 8
  %9 = getelementptr inbounds nuw %"class.pxrInternal_v0_24__pxrReserved__::GfVec3h", ptr %8, i32 0, i32 0
  %10 = getelementptr inbounds [3 x %"class.pxrInternal_v0_24__pxrReserved__::pxr_half::half"], ptr %9, i64 0, i64 0
  %11 = call i16 @_ZNK32pxrInternal_v0_24__pxrReserved__8pxr_half4halfngEv(ptr noundef nonnull align 2 dereferenceable(2) %10)
  %12 = getelementptr inbounds nuw %"class.pxrInternal_v0_24__pxrReserved__::pxr_half::half", ptr %4, i32 0, i32 0
  store i16 %11, ptr %12, align 2
  %13 = getelementptr inbounds nuw %"class.pxrInternal_v0_24__pxrReserved__::GfVec3h", ptr %8, i32 0, i32 0
  %14 = getelementptr inbounds [3 x %"class.pxrInternal_v0_24__pxrReserved__::pxr_half::half"], ptr %13, i64 0, i64 1
  %15 = call i16 @_ZNK32pxrInternal_v0_24__pxrReserved__8pxr_half4halfngEv(ptr noundef nonnull align 2 dereferenceable(2) %14)
  %16 = getelementptr inbounds nuw %"class.pxrInternal_v0_24__pxrReserved__::pxr_half::half", ptr %5, i32 0, i32 0
  store i16 %15, ptr %16, align 2
  %17 = getelementptr inbounds nuw %"class.pxrInternal_v0_24__pxrReserved__::GfVec3h", ptr %8, i32 0, i32 0
  %18 = getelementptr inbounds [3 x %"class.pxrInternal_v0_24__pxrReserved__::pxr_half::half"], ptr %17, i64 0, i64 2
  %19 = call i16 @_ZNK32pxrInternal_v0_24__pxrReserved__8pxr_half4halfngEv(ptr noundef nonnull align 2 dereferenceable(2) %18)
  %20 = getelementptr inbounds nuw %"class.pxrInternal_v0_24__pxrReserved__::pxr_half::half", ptr %6, i32 0, i32 0
  store i16 %19, ptr %20, align 2
  %21 = getelementptr inbounds nuw %"class.pxrInternal_v0_24__pxrReserved__::pxr_half::half", ptr %4, i32 0, i32 0
  %22 = load i16, ptr %21, align 2
  %23 = getelementptr inbounds nuw %"class.pxrInternal_v0_24__pxrReserved__::pxr_half::half", ptr %5, i32 0, i32 0
  %24 = load i16, ptr %23, align 2
  %25 = getelementptr inbounds nuw %"class.pxrInternal_v0_24__pxrReserved__::pxr_half::half", ptr %6, i32 0, i32 0
  %26 = load i16, ptr %25, align 2
  call void @_ZN32pxrInternal_v0_24__pxrReserved__7GfVec3hC2ENS_8pxr_half4halfES2_S2_(ptr noundef nonnull align 2 dereferenceable(6) %2, i16 %22, i16 %24, i16 %26)
  %27 = getelementptr inbounds nuw %"class.pxrInternal_v0_24__pxrReserved__::GfVec3h", ptr %2, i32 0, i32 0
  call void @llvm.memcpy.p0.p0.i64(ptr align 8 %7, ptr align 2 %27, i64 6, i1 false)
  %28 = load i48, ptr %7, align 8
  ret i48 %28
}

; Function Attrs: mustprogress nounwind uwtable
define linkonce_odr noundef nonnull align 2 dereferenceable(6) ptr @_ZNK32pxrInternal_v0_24__pxrReserved__7GfQuath12GetImaginaryEv(ptr noundef nonnull align 2 dereferenceable(8) %0) #2 comdat align 2 {
  %2 = alloca ptr, align 8
  store ptr %0, ptr %2, align 8
  %3 = load ptr, ptr %2, align 8
  %4 = getelementptr inbounds nuw %"class.pxrInternal_v0_24__pxrReserved__::GfQuath", ptr %3, i32 0, i32 0
  ret ptr %4
}

; Function Attrs: mustprogress nounwind uwtable
define linkonce_odr i16 @_ZNK32pxrInternal_v0_24__pxrReserved__7GfQuath7GetRealEv(ptr noundef nonnull align 2 dereferenceable(8) %0) #2 comdat align 2 {
  %2 = alloca %"class.pxrInternal_v0_24__pxrReserved__::pxr_half::half", align 2
  %3 = alloca ptr, align 8
  store ptr %0, ptr %3, align 8
  %4 = load ptr, ptr %3, align 8
  %5 = getelementptr inbounds nuw %"class.pxrInternal_v0_24__pxrReserved__::GfQuath", ptr %4, i32 0, i32 1
  call void @llvm.memcpy.p0.p0.i64(ptr align 2 %2, ptr align 2 %5, i64 2, i1 false)
  %6 = getelementptr inbounds nuw %"class.pxrInternal_v0_24__pxrReserved__::pxr_half::half", ptr %2, i32 0, i32 0
  %7 = load i16, ptr %6, align 2
  ret i16 %7
}

; Function Attrs: mustprogress nounwind uwtable
define linkonce_odr void @_ZN32pxrInternal_v0_24__pxrReserved__11GfDualQuathC2ERKNS_7GfQuathES3_(ptr noundef nonnull align 2 dereferenceable(16) %0, ptr noundef nonnull align 2 dereferenceable(8) %1, ptr noundef nonnull align 2 dereferenceable(8) %2) unnamed_addr #2 comdat align 2 {
  %4 = alloca ptr, align 8
  %5 = alloca ptr, align 8
  %6 = alloca ptr, align 8
  store ptr %0, ptr %4, align 8
  store ptr %1, ptr %5, align 8
  store ptr %2, ptr %6, align 8
  %7 = load ptr, ptr %4, align 8
  %8 = getelementptr inbounds nuw %"class.pxrInternal_v0_24__pxrReserved__::GfDualQuath", ptr %7, i32 0, i32 0
  %9 = load ptr, ptr %5, align 8
  call void @llvm.memcpy.p0.p0.i64(ptr align 2 %8, ptr align 2 %9, i64 8, i1 false)
  %10 = getelementptr inbounds nuw %"class.pxrInternal_v0_24__pxrReserved__::GfDualQuath", ptr %7, i32 0, i32 1
  %11 = load ptr, ptr %6, align 8
  call void @llvm.memcpy.p0.p0.i64(ptr align 2 %10, ptr align 2 %11, i64 8, i1 false)
  ret void
}

; Function Attrs: mustprogress uwtable
define linkonce_odr i64 @_ZNK32pxrInternal_v0_24__pxrReserved__7GfQuath12GetConjugateEv(ptr noundef nonnull align 2 dereferenceable(8) %0) #0 comdat align 2 {
  %2 = alloca %"class.pxrInternal_v0_24__pxrReserved__::GfQuath", align 2
  %3 = alloca ptr, align 8
  %4 = alloca %"class.pxrInternal_v0_24__pxrReserved__::pxr_half::half", align 2
  %5 = alloca %"class.pxrInternal_v0_24__pxrReserved__::GfVec3h", align 2
  store ptr %0, ptr %3, align 8
  %6 = load ptr, ptr %3, align 8
  %7 = call i16 @_ZNK32pxrInternal_v0_24__pxrReserved__7GfQuath7GetRealEv(ptr noundef nonnull align 2 dereferenceable(8) %6)
  %8 = getelementptr inbounds nuw %"class.pxrInternal_v0_24__pxrReserved__::pxr_half::half", ptr %4, i32 0, i32 0
  store i16 %7, ptr %8, align 2
  %9 = call noundef nonnull align 2 dereferenceable(6) ptr @_ZNK32pxrInternal_v0_24__pxrReserved__7GfQuath12GetImaginaryEv(ptr noundef nonnull align 2 dereferenceable(8) %6)
  %10 = call i48 @_ZNK32pxrInternal_v0_24__pxrReserved__7GfVec3hngEv(ptr noundef nonnull align 2 dereferenceable(6) %9)
  %11 = getelementptr inbounds nuw %"class.pxrInternal_v0_24__pxrReserved__::GfVec3h", ptr %5, i32 0, i32 0
  store i48 %10, ptr %11, align 2
  %12 = getelementptr inbounds nuw %"class.pxrInternal_v0_24__pxrReserved__::pxr_half::half", ptr %4, i32 0, i32 0
  %13 = load i16, ptr %12, align 2
  call void @_ZN32pxrInternal_v0_24__pxrReserved__7GfQuathC2ENS_8pxr_half4halfERKNS_7GfVec3hE(ptr noundef nonnull align 2 dereferenceable(8) %2, i16 %13, ptr noundef nonnull align 2 dereferenceable(6) %5)
  %14 = load i64, ptr %2, align 2
  ret i64 %14
}

; Function Attrs: mustprogress uwtable
define { i64, i64 } @_ZNK32pxrInternal_v0_24__pxrReserved__11GfDualQuath12GetConjugateEv(ptr noundef nonnull align 2 dereferenceable(16) %0) #0 align 2 {
  %2 = alloca %"class.pxrInternal_v0_24__pxrReserved__::GfDualQuath", align 2
  %3 = alloca ptr, align 8
  %4 = alloca %"class.pxrInternal_v0_24__pxrReserved__::GfQuath", align 2
  %5 = alloca %"class.pxrInternal_v0_24__pxrReserved__::GfQuath", align 2
  store ptr %0, ptr %3, align 8
  %6 = load ptr, ptr %3, align 8
  %7 = getelementptr inbounds nuw %"class.pxrInternal_v0_24__pxrReserved__::GfDualQuath", ptr %6, i32 0, i32 0
  %8 = call i64 @_ZNK32pxrInternal_v0_24__pxrReserved__7GfQuath12GetConjugateEv(ptr noundef nonnull align 2 dereferenceable(8) %7)
  store i64 %8, ptr %4, align 2
  %9 = getelementptr inbounds nuw %"class.pxrInternal_v0_24__pxrReserved__::GfDualQuath", ptr %6, i32 0, i32 1
  %10 = call i64 @_ZNK32pxrInternal_v0_24__pxrReserved__7GfQuath12GetConjugateEv(ptr noundef nonnull align 2 dereferenceable(8) %9)
  store i64 %10, ptr %5, align 2
  call void @_ZN32pxrInternal_v0_24__pxrReserved__11GfDualQuathC2ERKNS_7GfQuathES3_(ptr noundef nonnull align 2 dereferenceable(16) %2, ptr noundef nonnull align 2 dereferenceable(8) %4, ptr noundef nonnull align 2 dereferenceable(8) %5)
  %11 = load { i64, i64 }, ptr %2, align 2
  ret { i64, i64 } %11
}