; Function Attrs: mustprogress nofree norecurse nosync nounwind willreturn memory(argmem: read) uwtable
define { i64, i64 } @_ZNK32pxrInternal_v0_24__pxrReserved__11GfDualQuath12GetConjugateEv(ptr nocapture noundef nonnull readonly align 2 dereferenceable(16) %0) local_unnamed_addr #3 align 2 {
  %2 = getelementptr inbounds nuw i8, ptr %0, i64 6
  %.sroa.0.0.copyload.i.i = load i16, ptr %2, align 2
  %3 = load i16, ptr %0, align 2
  %4 = xor i16 %3, -32768
  %5 = getelementptr inbounds i8, ptr %0, i64 2
  %6 = load i16, ptr %5, align 2
  %7 = xor i16 %6, -32768
  %8 = getelementptr inbounds i8, ptr %0, i64 4
  %9 = load i16, ptr %8, align 2
  %10 = xor i16 %9, -32768
  %.sroa.3.0.insert.ext.i.i = zext i16 %10 to i64
  %.sroa.3.0.insert.shift.i.i = shl nuw nsw i64 %.sroa.3.0.insert.ext.i.i, 32
  %.sroa.2.0.insert.ext.i.i = zext i16 %7 to i64
  %.sroa.2.0.insert.shift.i.i = shl nuw nsw i64 %.sroa.2.0.insert.ext.i.i, 16
  %.sroa.2.0.insert.insert.i.i = or disjoint i64 %.sroa.3.0.insert.shift.i.i, %.sroa.2.0.insert.shift.i.i
  %.sroa.0.0.insert.ext.i.i = zext i16 %4 to i64
  %.sroa.0.0.insert.insert.i.i = or disjoint i64 %.sroa.2.0.insert.insert.i.i, %.sroa.0.0.insert.ext.i.i
  %.sroa.2.0.insert.ext.i = zext i16 %.sroa.0.0.copyload.i.i to i64
  %.sroa.2.0.insert.shift.i = shl nuw i64 %.sroa.2.0.insert.ext.i, 48
  %.sroa.01.0.insert.insert.i = or disjoint i64 %.sroa.0.0.insert.insert.i.i, %.sroa.2.0.insert.shift.i
  %11 = getelementptr inbounds nuw i8, ptr %0, i64 8
  %12 = getelementptr inbounds i8, ptr %0, i64 14
  %.sroa.0.0.copyload.i.i1 = load i16, ptr %12, align 2
  %13 = load i16, ptr %11, align 2
  %14 = xor i16 %13, -32768
  %15 = getelementptr inbounds i8, ptr %0, i64 10
  %16 = load i16, ptr %15, align 2
  %17 = xor i16 %16, -32768
  %18 = getelementptr inbounds i8, ptr %0, i64 12
  %19 = load i16, ptr %18, align 2
  %20 = xor i16 %19, -32768
  %.sroa.3.0.insert.ext.i.i2 = zext i16 %20 to i64
  %.sroa.3.0.insert.shift.i.i3 = shl nuw nsw i64 %.sroa.3.0.insert.ext.i.i2, 32
  %.sroa.2.0.insert.ext.i.i4 = zext i16 %17 to i64
  %.sroa.2.0.insert.shift.i.i5 = shl nuw nsw i64 %.sroa.2.0.insert.ext.i.i4, 16
  %.sroa.2.0.insert.insert.i.i6 = or disjoint i64 %.sroa.3.0.insert.shift.i.i3, %.sroa.2.0.insert.shift.i.i5
  %.sroa.0.0.insert.ext.i.i7 = zext i16 %14 to i64
  %.sroa.0.0.insert.insert.i.i8 = or disjoint i64 %.sroa.2.0.insert.insert.i.i6, %.sroa.0.0.insert.ext.i.i7
  %.sroa.2.0.insert.ext.i9 = zext i16 %.sroa.0.0.copyload.i.i1 to i64
  %.sroa.2.0.insert.shift.i10 = shl nuw i64 %.sroa.2.0.insert.ext.i9, 48
  %.sroa.01.0.insert.insert.i11 = or disjoint i64 %.sroa.0.0.insert.insert.i.i8, %.sroa.2.0.insert.shift.i10
  %.fca.0.insert = insertvalue { i64, i64 } poison, i64 %.sroa.01.0.insert.insert.i, 0
  %.fca.1.insert = insertvalue { i64, i64 } %.fca.0.insert, i64 %.sroa.01.0.insert.insert.i11, 1
  ret { i64, i64 } %.fca.1.insert
}